; Function Attrs: mustprogress nounwind uwtable
define hidden noundef zeroext i1 @_ZNK15ClassLoaderData8is_aliveEv(ptr nocapture noundef nonnull readonly align 8 dereferenceable(160) %0) local_unnamed_addr #0 align 2 {
  %2 = getelementptr inbounds i8, ptr %0, i64 36
  %3 = load i32, ptr %2, align 4
  %4 = icmp sgt i32 %3, 0
  br i1 %4, label %10, label %5

5:                                                ; preds = %1
  %6 = load ptr, ptr %0, align 8
  %7 = load ptr, ptr @_ZN14AccessInternal15RuntimeDispatchILm593988EP7oopDescLNS_11BarrierTypeE2EE10_load_funcE, align 8
  %8 = tail call noundef ptr %7(ptr noundef %6) #16
  %9 = icmp ne ptr %8, null
  br label %10

10:                                               ; preds = %5, %1
  %11 = phi i1 [ true, %1 ], [ %9, %5 ]
  ret i1 %11
}